; Function Attrs: nounwind uwtable
define internal zeroext i1 @cf_socket_data_pending(ptr noundef readonly captures(none) %0, ptr readnone captures(none) %1) #2 {
  %3 = getelementptr inbounds nuw i8, ptr %0, i64 16
  %4 = load ptr, ptr %3, align 8, !tbaa !104
  %5 = getelementptr inbounds nuw i8, ptr %4, i64 152
  %6 = load i32, ptr %5, align 8, !tbaa !116
  %7 = tail call i32 @Curl_socket_check(i32 noundef %6, i32 noundef -1, i32 noundef -1, i64 noundef 0) #13
  %8 = icmp sgt i32 %7, 0
  %9 = and i32 %7, 1
  %10 = icmp ne i32 %9, 0
  %11 = and i1 %8, %10
  ret i1 %11
}